; Function Attrs: mustprogress uwtable
define noundef i32 @uspoof_checkUnicodeString_75(ptr noundef %sc, ptr noundef nonnull align 8 dereferenceable(64) %id, ptr noundef writeonly %position, ptr noundef %status) local_unnamed_addr #0 personality ptr @__gxx_personality_v0 {
entry:
  %stackCheckResult.i = alloca %"class.icu_75::CheckResult", align 8
  %cmp.not = icmp eq ptr %position, null
  br i1 %cmp.not, label %if.end, label %if.then

if.then:                                          ; preds = %entry
  store i32 0, ptr %position, align 4
  br label %if.end

if.end:                                           ; preds = %if.then, %entry
  call void @llvm.lifetime.start.p0(i64 224, ptr nonnull %stackCheckResult.i)
  %call.i = tail call noundef ptr @_ZN6icu_759SpoofImpl12validateThisEPK13USpoofCheckerR10UErrorCode(ptr noundef %sc, ptr noundef nonnull align 4 dereferenceable(4) %status)
  %cmp.i = icmp eq ptr %call.i, null
  br i1 %cmp.i, label %uspoof_check2UnicodeString_75.exit, label %if.end.i

if.end.i:                                         ; preds = %if.end
  call void @_ZN6icu_7511CheckResultC1Ev(ptr noundef nonnull align 8 dereferenceable(220) %stackCheckResult.i)
  %call8.i = invoke fastcc noundef i32 @_ZN12_GLOBAL__N_19checkImplEPKN6icu_759SpoofImplERKNS0_13UnicodeStringEPNS0_11CheckResultEP10UErrorCode(ptr noundef nonnull %call.i, ptr noundef nonnull align 8 dereferenceable(64) %id, ptr noundef nonnull %stackCheckResult.i, ptr noundef nonnull %status)
          to label %invoke.cont.i unwind label %lpad.i

invoke.cont.i:                                    ; preds = %if.end.i
  call void @_ZN6icu_7511CheckResultD1Ev(ptr noundef nonnull align 8 dereferenceable(220) %stackCheckResult.i) #6
  br label %uspoof_check2UnicodeString_75.exit

lpad.i:                                           ; preds = %if.end.i
  %0 = landingpad { ptr, i32 }
          cleanup
  call void @_ZN6icu_7511CheckResultD1Ev(ptr noundef nonnull align 8 dereferenceable(220) %stackCheckResult.i) #6
  resume { ptr, i32 } %0

uspoof_check2UnicodeString_75.exit:               ; preds = %if.end, %invoke.cont.i
  %retval.0.i = phi i32 [ %call8.i, %invoke.cont.i ], [ 0, %if.end ]
  call void @llvm.lifetime.end.p0(i64 224, ptr nonnull %stackCheckResult.i)
  ret i32 %retval.0.i
}